; Function Attrs: mustprogress nofree norecurse nosync nounwind willreturn memory(argmem: read) uwtable
define hidden zeroext i8 @mbedtls_md_get_size(ptr noundef readonly captures(address_is_null) %0) local_unnamed_addr #10 {
  %2 = icmp eq ptr %0, null
  br i1 %2, label %6, label %3

3:                                                ; preds = %1
  %4 = getelementptr inbounds nuw i8, ptr %0, i64 12
  %5 = load i8, ptr %4, align 4, !tbaa !16
  br label %6

6:                                                ; preds = %1, %3
  %.0 = phi i8 [ %5, %3 ], [ 0, %1 ]
  ret i8 %.0
}